; ModuleID = '20/552.c'
source_filename = "20/552.c"
target datalayout = "e-m:e-p270:32:32-p271:32:32-p272:64:64-i64:64-f80:128-n8:16:32:64-S128"
target triple = "x86_64-pc-linux-gnu"

@.str = private unnamed_addr constant [5 x i8] c"%s%s\00", align 1
@.str.1 = private unnamed_addr constant [4 x i8] c"%s\0A\00", align 1

; Function Attrs: noinline nounwind uwtable
define dso_local void @main() #0 {
  %1 = alloca [16 x i8], align 16
  %2 = alloca [4 x i8], align 1
  %3 = alloca i32, align 4
  %4 = alloca i32, align 4
  %5 = alloca i32, align 4
  %6 = alloca i8, align 1
  store i32 0, i32* %5, align 4
  store i8 0, i8* %6, align 1
  br label %7

7:                                                ; preds = %87, %0
  %8 = getelementptr inbounds [16 x i8], [16 x i8]* %1, i64 0, i64 0
  %9 = getelementptr inbounds [4 x i8], [4 x i8]* %2, i64 0, i64 0
  %10 = call i32 (i8*, ...) @__isoc99_scanf(i8* getelementptr inbounds ([5 x i8], [5 x i8]* @.str, i64 0, i64 0), i8* %8, i8* %9)
  %11 = icmp eq i32 %10, 2
  br i1 %11, label %12, label %90

12:                                               ; preds = %7
  store i32 0, i32* %5, align 4
  store i8 0, i8* %6, align 1
  %13 = getelementptr inbounds [16 x i8], [16 x i8]* %1, i64 0, i64 0
  %14 = call i64 @strlen(i8* %13) #3
  %15 = trunc i64 %14 to i32
  store i32 %15, i32* %4, align 4
  store i32 0, i32* %3, align 4
  br label %16

16:                                               ; preds = %38, %12
  %17 = load i32, i32* %3, align 4
  %18 = load i32, i32* %4, align 4
  %19 = icmp slt i32 %17, %18
  br i1 %19, label %20, label %41

20:                                               ; preds = %16
  %21 = load i8, i8* %6, align 1
  %22 = sext i8 %21 to i32
  %23 = getelementptr inbounds [16 x i8], [16 x i8]* %1, i64 0, i64 0
  %24 = load i32, i32* %3, align 4
  %25 = sext i32 %24 to i64
  %26 = getelementptr inbounds i8, i8* %23, i64 %25
  %27 = load i8, i8* %26, align 1
  %28 = sext i8 %27 to i32
  %29 = icmp slt i32 %22, %28
  br i1 %29, label %30, label %37

30:                                               ; preds = %20
  %31 = getelementptr inbounds [16 x i8], [16 x i8]* %1, i64 0, i64 0
  %32 = load i32, i32* %3, align 4
  %33 = sext i32 %32 to i64
  %34 = getelementptr inbounds i8, i8* %31, i64 %33
  %35 = load i8, i8* %34, align 1
  store i8 %35, i8* %6, align 1
  %36 = load i32, i32* %3, align 4
  store i32 %36, i32* %5, align 4
  br label %37

37:                                               ; preds = %30, %20
  br label %38

38:                                               ; preds = %37
  %39 = load i32, i32* %3, align 4
  %40 = add nsw i32 %39, 1
  store i32 %40, i32* %3, align 4
  br label %16

41:                                               ; preds = %16
  %42 = load i32, i32* %4, align 4
  %43 = add nsw i32 %42, 3
  %44 = sext i32 %43 to i64
  %45 = getelementptr inbounds [16 x i8], [16 x i8]* %1, i64 0, i64 %44
  store i8 0, i8* %45, align 1
  %46 = load i32, i32* %4, align 4
  %47 = sub nsw i32 %46, 1
  store i32 %47, i32* %3, align 4
  br label %48

48:                                               ; preds = %63, %41
  %49 = load i32, i32* %3, align 4
  %50 = load i32, i32* %5, align 4
  %51 = icmp sgt i32 %49, %50
  br i1 %51, label %52, label %66

52:                                               ; preds = %48
  %53 = getelementptr inbounds [16 x i8], [16 x i8]* %1, i64 0, i64 0
  %54 = load i32, i32* %3, align 4
  %55 = sext i32 %54 to i64
  %56 = getelementptr inbounds i8, i8* %53, i64 %55
  %57 = load i8, i8* %56, align 1
  %58 = getelementptr inbounds [16 x i8], [16 x i8]* %1, i64 0, i64 0
  %59 = load i32, i32* %3, align 4
  %60 = sext i32 %59 to i64
  %61 = getelementptr inbounds i8, i8* %58, i64 %60
  %62 = getelementptr inbounds i8, i8* %61, i64 3
  store i8 %57, i8* %62, align 1
  br label %63

63:                                               ; preds = %52
  %64 = load i32, i32* %3, align 4
  %65 = add nsw i32 %64, -1
  store i32 %65, i32* %3, align 4
  br label %48

66:                                               ; preds = %48
  store i32 0, i32* %3, align 4
  br label %67

67:                                               ; preds = %84, %66
  %68 = load i32, i32* %3, align 4
  %69 = icmp slt i32 %68, 3
  br i1 %69, label %70, label %87

70:                                               ; preds = %67
  %71 = getelementptr inbounds [4 x i8], [4 x i8]* %2, i64 0, i64 0
  %72 = load i32, i32* %3, align 4
  %73 = sext i32 %72 to i64
  %74 = getelementptr inbounds i8, i8* %71, i64 %73
  %75 = load i8, i8* %74, align 1
  %76 = getelementptr inbounds [16 x i8], [16 x i8]* %1, i64 0, i64 0
  %77 = load i32, i32* %5, align 4
  %78 = sext i32 %77 to i64
  %79 = getelementptr inbounds i8, i8* %76, i64 %78
  %80 = load i32, i32* %3, align 4
  %81 = sext i32 %80 to i64
  %82 = getelementptr inbounds i8, i8* %79, i64 %81
  %83 = getelementptr inbounds i8, i8* %82, i64 1
  store i8 %75, i8* %83, align 1
  br label %84

84:                                               ; preds = %70
  %85 = load i32, i32* %3, align 4
  %86 = add nsw i32 %85, 1
  store i32 %86, i32* %3, align 4
  br label %67

87:                                               ; preds = %67
  %88 = getelementptr inbounds [16 x i8], [16 x i8]* %1, i64 0, i64 0
  %89 = call i32 (i8*, ...) @printf(i8* getelementptr inbounds ([4 x i8], [4 x i8]* @.str.1, i64 0, i64 0), i8* %88)
  br label %7

90:                                               ; preds = %7
  ret void
}

declare dso_local i32 @__isoc99_scanf(i8*, ...) #1

; Function Attrs: nounwind readonly
declare dso_local i64 @strlen(i8*) #2

declare dso_local i32 @printf(i8*, ...) #1


!llvm.module.flags = !{!0}
!llvm.ident = !{!1}

!0 = !{i32 1, !"wchar_size", i32 4}
!1 = !{!"clang version 10.0.0-4ubuntu1 "}
